target datalayout = "e-m:e-p270:32:32-p271:32:32-p272:64:64-i64:64-i128:128-f80:128-n8:16:32:64-S128"
target triple = "x86_64-pc-linux-gnu"

%struct.fstReaderContext = type { ptr, ptr, i64, i64, i64, i64, i64, i32, i64, i64, ptr, ptr, ptr, i32, ptr, i8, i8, i8, [129 x i8], [120 x i8], i64, ptr, ptr, i64, i32, ptr, ptr, i64, i64, i8, ptr, i64, i64, ptr, i64, ptr, ptr, i64, i64, ptr, i32, i32, ptr, i32, i32, i32, i64, i8, %struct.fstHier, ptr, i32, ptr, i32, i8, [513 x i8], [513 x i8], ptr, i8, i32, i32, [65536 x i8], ptr, ptr }
%struct.fstHier = type { i8, %union.anon }
%union.anon = type { %"struct.fstHier::(anonymous union)::fstHierAttr" }
%"struct.fstHier::(anonymous union)::fstHierAttr" = type { i8, i8, ptr, i64, i64, i32 }

; Function Attrs: mustprogress nounwind uwtable
define zeroext i8 @fstReaderGetDumpActivityChangeValue(ptr noundef %0, i32 noundef %1) #8 {
  %3 = alloca i8, align 1
  %4 = alloca ptr, align 8
  %5 = alloca i32, align 4
  %6 = alloca ptr, align 8
  %7 = alloca i32, align 4
  store ptr %0, ptr %4, align 8, !tbaa !50
  store i32 %1, ptr %5, align 4, !tbaa !11
  call void @llvm.lifetime.start.p0(i64 8, ptr %6) #15
  %8 = load ptr, ptr %4, align 8, !tbaa !50
  store ptr %8, ptr %6, align 8, !tbaa !147
  %9 = load ptr, ptr %6, align 8, !tbaa !147
  %10 = icmp ne ptr %9, null
  br i1 %10, label %11, label %30

11:                                               ; preds = %2
  %12 = load i32, ptr %5, align 4, !tbaa !11
  %13 = load ptr, ptr %6, align 8, !tbaa !147
  %14 = getelementptr inbounds nuw %struct.fstReaderContext, ptr %13, i32 0, i32 24
  %15 = load i32, ptr %14, align 8, !tbaa !173
  %16 = icmp ult i32 %12, %15
  br i1 %16, label %17, label %30

17:                                               ; preds = %11
  %18 = load ptr, ptr %6, align 8, !tbaa !147
  %19 = getelementptr inbounds nuw %struct.fstReaderContext, ptr %18, i32 0, i32 26
  %20 = load ptr, ptr %19, align 8, !tbaa !175
  %21 = icmp ne ptr %20, null
  br i1 %21, label %22, label %30

22:                                               ; preds = %17
  %23 = load ptr, ptr %6, align 8, !tbaa !147
  %24 = getelementptr inbounds nuw %struct.fstReaderContext, ptr %23, i32 0, i32 26
  %25 = load ptr, ptr %24, align 8, !tbaa !175
  %26 = load i32, ptr %5, align 4, !tbaa !11
  %27 = zext i32 %26 to i64
  %28 = getelementptr inbounds nuw i8, ptr %25, i64 %27
  %29 = load i8, ptr %28, align 1, !tbaa !34
  store i8 %29, ptr %3, align 1
  store i32 1, ptr %7, align 4
  br label %31

30:                                               ; preds = %17, %11, %2
  store i8 0, ptr %3, align 1
  store i32 1, ptr %7, align 4
  br label %31

31:                                               ; preds = %30, %22
  call void @llvm.lifetime.end.p0(i64 8, ptr %6) #15
  %32 = load i8, ptr %3, align 1
  ret i8 %32
}