; Function Attrs: mustprogress nofree norecurse nosync nounwind willreturn memory(read, inaccessiblemem: none) uwtable
define zeroext i8 @fstReaderGetDumpActivityChangeValue(ptr noundef readonly captures(address_is_null) %0, i32 noundef %1) local_unnamed_addr #24 {
  %.not = icmp eq ptr %0, null
  br i1 %.not, label %14, label %3

3:                                                ; preds = %2
  %4 = getelementptr inbounds nuw i8, ptr %0, i64 408
  %5 = load i32, ptr %4, align 8, !tbaa !147
  %6 = icmp ult i32 %1, %5
  br i1 %6, label %7, label %14

7:                                                ; preds = %3
  %8 = getelementptr inbounds nuw i8, ptr %0, i64 424
  %9 = load ptr, ptr %8, align 8, !tbaa !149
  %.not10 = icmp eq ptr %9, null
  br i1 %.not10, label %14, label %10

10:                                               ; preds = %7
  %11 = zext i32 %1 to i64
  %12 = getelementptr inbounds nuw i8, ptr %9, i64 %11
  %13 = load i8, ptr %12, align 1, !tbaa !6
  br label %14

14:                                               ; preds = %2, %3, %7, %10
  %.0 = phi i8 [ %13, %10 ], [ 0, %7 ], [ 0, %3 ], [ 0, %2 ]
  ret i8 %.0
}